; ModuleID = '24/2509.c'
source_filename = "24/2509.c"
target datalayout = "e-m:e-p270:32:32-p271:32:32-p272:64:64-i64:64-f80:128-n8:16:32:64-S128"
target triple = "x86_64-pc-linux-gnu"

@.str = private unnamed_addr constant [3 x i8] c"%c\00", align 1
@.str.1 = private unnamed_addr constant [2 x i8] c"\0A\00", align 1

; Function Attrs: noinline nounwind uwtable
define dso_local i32 @main() #0 {
  %1 = alloca i32, align 4
  %2 = alloca [100 x i8], align 16
  %3 = alloca [100 x i32], align 16
  %4 = alloca [100 x i32], align 16
  %5 = alloca i32, align 4
  %6 = alloca i32, align 4
  %7 = alloca i32, align 4
  %8 = alloca i32, align 4
  %9 = alloca i32, align 4
  %10 = alloca i32, align 4
  %11 = alloca i32, align 4
  %12 = alloca i32, align 4
  %13 = alloca i32, align 4
  %14 = alloca i32, align 4
  %15 = alloca i32, align 4
  %16 = alloca [100 x i32], align 16
  store i32 0, i32* %1, align 4
  %17 = getelementptr inbounds [100 x i8], [100 x i8]* %2, i64 0, i64 0
  %18 = call i32 (i8*, ...) bitcast (i32 (...)* @gets to i32 (i8*, ...)*)(i8* %17)
  %19 = bitcast [100 x i32]* %3 to i8*
  call void @llvm.memset.p0i8.i64(i8* align 16 %19, i8 0, i64 400, i1 false)
  %20 = bitcast [100 x i32]* %4 to i8*
  call void @llvm.memset.p0i8.i64(i8* align 16 %20, i8 0, i64 400, i1 false)
  store i32 0, i32* %6, align 4
  store i32 0, i32* %7, align 4
  store i32 0, i32* %8, align 4
  store i32 0, i32* %9, align 4
  store i32 0, i32* %10, align 4
  store i32 0, i32* %11, align 4
  store i32 0, i32* %12, align 4
  store i32 0, i32* %13, align 4
  store i32 0, i32* %14, align 4
  %21 = bitcast [100 x i32]* %16 to i8*
  call void @llvm.memset.p0i8.i64(i8* align 16 %21, i8 0, i64 400, i1 false)
  %22 = getelementptr inbounds [100 x i8], [100 x i8]* %2, i64 0, i64 0
  %23 = call i64 @strlen(i8* %22) #4
  %24 = trunc i64 %23 to i32
  store i32 %24, i32* %15, align 4
  store i32 0, i32* %5, align 4
  br label %25

25:                                               ; preds = %69, %0
  %26 = load i32, i32* %5, align 4
  %27 = load i32, i32* %15, align 4
  %28 = icmp sle i32 %26, %27
  br i1 %28, label %29, label %72

29:                                               ; preds = %25
  %30 = load i32, i32* %5, align 4
  %31 = sext i32 %30 to i64
  %32 = getelementptr inbounds [100 x i8], [100 x i8]* %2, i64 0, i64 %31
  %33 = load i8, i8* %32, align 1
  %34 = sext i8 %33 to i32
  %35 = icmp eq i32 %34, 32
  br i1 %35, label %43, label %36

36:                                               ; preds = %29
  %37 = load i32, i32* %5, align 4
  %38 = sext i32 %37 to i64
  %39 = getelementptr inbounds [100 x i8], [100 x i8]* %2, i64 0, i64 %38
  %40 = load i8, i8* %39, align 1
  %41 = sext i8 %40 to i32
  %42 = icmp eq i32 %41, 0
  br i1 %42, label %43, label %68

43:                                               ; preds = %36, %29
  %44 = load i32, i32* %5, align 4
  %45 = load i32, i32* %6, align 4
  %46 = sext i32 %45 to i64
  %47 = getelementptr inbounds [100 x i32], [100 x i32]* %16, i64 0, i64 %46
  %48 = load i32, i32* %47, align 4
  %49 = sub nsw i32 %44, %48
  store i32 %49, i32* %8, align 4
  %50 = load i32, i32* %8, align 4
  %51 = load i32, i32* %6, align 4
  %52 = sext i32 %51 to i64
  %53 = getelementptr inbounds [100 x i32], [100 x i32]* %4, i64 0, i64 %52
  store i32 %50, i32* %53, align 4
  %54 = load i32, i32* %7, align 4
  %55 = load i32, i32* %8, align 4
  %56 = add nsw i32 %54, %55
  %57 = add nsw i32 %56, 1
  store i32 %57, i32* %7, align 4
  %58 = load i32, i32* %7, align 4
  %59 = sub nsw i32 %58, 1
  %60 = load i32, i32* %6, align 4
  %61 = add nsw i32 %60, 1
  %62 = sext i32 %61 to i64
  %63 = getelementptr inbounds [100 x i32], [100 x i32]* %16, i64 0, i64 %62
  store i32 %59, i32* %63, align 4
  %64 = load i32, i32* %9, align 4
  %65 = add nsw i32 %64, 1
  store i32 %65, i32* %9, align 4
  store i32 %64, i32* %9, align 4
  %66 = load i32, i32* %6, align 4
  %67 = add nsw i32 %66, 1
  store i32 %67, i32* %6, align 4
  store i32 %66, i32* %6, align 4
  br label %68

68:                                               ; preds = %43, %36
  br label %69

69:                                               ; preds = %68
  %70 = load i32, i32* %5, align 4
  %71 = add nsw i32 %70, 1
  store i32 %71, i32* %5, align 4
  br label %25

72:                                               ; preds = %25
  %73 = getelementptr inbounds [100 x i32], [100 x i32]* %4, i64 0, i64 1
  %74 = load i32, i32* %73, align 4
  %75 = sub nsw i32 %74, 1
  %76 = getelementptr inbounds [100 x i32], [100 x i32]* %4, i64 0, i64 1
  store i32 %75, i32* %76, align 4
  %77 = load i32, i32* %15, align 4
  %78 = load i32, i32* %9, align 4
  %79 = sext i32 %78 to i64
  %80 = getelementptr inbounds [100 x i32], [100 x i32]* %16, i64 0, i64 %79
  %81 = load i32, i32* %80, align 4
  %82 = sub nsw i32 %77, %81
  %83 = load i32, i32* %9, align 4
  %84 = sext i32 %83 to i64
  %85 = getelementptr inbounds [100 x i32], [100 x i32]* %4, i64 0, i64 %84
  store i32 %82, i32* %85, align 4
  %86 = getelementptr inbounds [100 x i32], [100 x i32]* %16, i64 0, i64 1
  %87 = load i32, i32* %86, align 4
  %88 = add nsw i32 %87, 1
  %89 = getelementptr inbounds [100 x i32], [100 x i32]* %16, i64 0, i64 1
  store i32 %88, i32* %89, align 4
  store i32 0, i32* %6, align 4
  br label %90

90:                                               ; preds = %124, %72
  %91 = load i32, i32* %6, align 4
  %92 = load i32, i32* %9, align 4
  %93 = add nsw i32 %92, 1
  %94 = icmp slt i32 %91, %93
  br i1 %94, label %95, label %127

95:                                               ; preds = %90
  store i32 0, i32* %10, align 4
  store i32 0, i32* %5, align 4
  br label %96

96:                                               ; preds = %114, %95
  %97 = load i32, i32* %5, align 4
  %98 = load i32, i32* %9, align 4
  %99 = icmp slt i32 %97, %98
  br i1 %99, label %100, label %117

100:                                              ; preds = %96
  %101 = load i32, i32* %5, align 4
  %102 = sext i32 %101 to i64
  %103 = getelementptr inbounds [100 x i32], [100 x i32]* %4, i64 0, i64 %102
  %104 = load i32, i32* %103, align 4
  %105 = load i32, i32* %6, align 4
  %106 = sext i32 %105 to i64
  %107 = getelementptr inbounds [100 x i32], [100 x i32]* %4, i64 0, i64 %106
  %108 = load i32, i32* %107, align 4
  %109 = icmp sle i32 %104, %108
  br i1 %109, label %110, label %113

110:                                              ; preds = %100
  %111 = load i32, i32* %10, align 4
  %112 = add nsw i32 %111, 1
  store i32 %112, i32* %10, align 4
  store i32 %111, i32* %10, align 4
  br label %113

113:                                              ; preds = %110, %100
  br label %114

114:                                              ; preds = %113
  %115 = load i32, i32* %5, align 4
  %116 = add nsw i32 %115, 1
  store i32 %116, i32* %5, align 4
  br label %96

117:                                              ; preds = %96
  %118 = load i32, i32* %10, align 4
  %119 = load i32, i32* %9, align 4
  %120 = icmp sge i32 %118, %119
  br i1 %120, label %121, label %123

121:                                              ; preds = %117
  %122 = load i32, i32* %6, align 4
  store i32 %122, i32* %12, align 4
  br label %127

123:                                              ; preds = %117
  br label %124

124:                                              ; preds = %123
  %125 = load i32, i32* %6, align 4
  %126 = add nsw i32 %125, 1
  store i32 %126, i32* %6, align 4
  br label %90

127:                                              ; preds = %121, %90
  store i32 0, i32* %6, align 4
  br label %128

128:                                              ; preds = %161, %127
  %129 = load i32, i32* %6, align 4
  %130 = load i32, i32* %9, align 4
  %131 = icmp slt i32 %129, %130
  br i1 %131, label %132, label %164

132:                                              ; preds = %128
  store i32 0, i32* %11, align 4
  store i32 0, i32* %5, align 4
  br label %133

133:                                              ; preds = %151, %132
  %134 = load i32, i32* %5, align 4
  %135 = load i32, i32* %9, align 4
  %136 = icmp slt i32 %134, %135
  br i1 %136, label %137, label %154

137:                                              ; preds = %133
  %138 = load i32, i32* %5, align 4
  %139 = sext i32 %138 to i64
  %140 = getelementptr inbounds [100 x i32], [100 x i32]* %4, i64 0, i64 %139
  %141 = load i32, i32* %140, align 4
  %142 = load i32, i32* %6, align 4
  %143 = sext i32 %142 to i64
  %144 = getelementptr inbounds [100 x i32], [100 x i32]* %4, i64 0, i64 %143
  %145 = load i32, i32* %144, align 4
  %146 = icmp sge i32 %141, %145
  br i1 %146, label %147, label %150

147:                                              ; preds = %137
  %148 = load i32, i32* %11, align 4
  %149 = add nsw i32 %148, 1
  store i32 %149, i32* %11, align 4
  store i32 %148, i32* %11, align 4
  br label %150

150:                                              ; preds = %147, %137
  br label %151

151:                                              ; preds = %150
  %152 = load i32, i32* %5, align 4
  %153 = add nsw i32 %152, 1
  store i32 %153, i32* %5, align 4
  br label %133

154:                                              ; preds = %133
  %155 = load i32, i32* %11, align 4
  %156 = load i32, i32* %9, align 4
  %157 = icmp sge i32 %155, %156
  br i1 %157, label %158, label %160

158:                                              ; preds = %154
  %159 = load i32, i32* %6, align 4
  store i32 %159, i32* %13, align 4
  br label %164

160:                                              ; preds = %154
  br label %161

161:                                              ; preds = %160
  %162 = load i32, i32* %6, align 4
  %163 = add nsw i32 %162, 1
  store i32 %163, i32* %6, align 4
  br label %128

164:                                              ; preds = %158, %128
  %165 = load i32, i32* %12, align 4
  %166 = sext i32 %165 to i64
  %167 = getelementptr inbounds [100 x i32], [100 x i32]* %16, i64 0, i64 %166
  %168 = load i32, i32* %167, align 4
  store i32 %168, i32* %5, align 4
  br label %169

169:                                              ; preds = %188, %164
  %170 = load i32, i32* %5, align 4
  %171 = load i32, i32* %12, align 4
  %172 = sext i32 %171 to i64
  %173 = getelementptr inbounds [100 x i32], [100 x i32]* %16, i64 0, i64 %172
  %174 = load i32, i32* %173, align 4
  %175 = load i32, i32* %12, align 4
  %176 = sext i32 %175 to i64
  %177 = getelementptr inbounds [100 x i32], [100 x i32]* %4, i64 0, i64 %176
  %178 = load i32, i32* %177, align 4
  %179 = add nsw i32 %174, %178
  %180 = icmp slt i32 %170, %179
  br i1 %180, label %181, label %191

181:                                              ; preds = %169
  %182 = load i32, i32* %5, align 4
  %183 = sext i32 %182 to i64
  %184 = getelementptr inbounds [100 x i8], [100 x i8]* %2, i64 0, i64 %183
  %185 = load i8, i8* %184, align 1
  %186 = sext i8 %185 to i32
  %187 = call i32 (i8*, ...) @printf(i8* getelementptr inbounds ([3 x i8], [3 x i8]* @.str, i64 0, i64 0), i32 %186)
  br label %188

188:                                              ; preds = %181
  %189 = load i32, i32* %5, align 4
  %190 = add nsw i32 %189, 1
  store i32 %190, i32* %5, align 4
  br label %169

191:                                              ; preds = %169
  %192 = call i32 (i8*, ...) @printf(i8* getelementptr inbounds ([2 x i8], [2 x i8]* @.str.1, i64 0, i64 0))
  %193 = load i32, i32* %13, align 4
  %194 = sext i32 %193 to i64
  %195 = getelementptr inbounds [100 x i32], [100 x i32]* %16, i64 0, i64 %194
  %196 = load i32, i32* %195, align 4
  store i32 %196, i32* %5, align 4
  br label %197

197:                                              ; preds = %216, %191
  %198 = load i32, i32* %5, align 4
  %199 = load i32, i32* %13, align 4
  %200 = sext i32 %199 to i64
  %201 = getelementptr inbounds [100 x i32], [100 x i32]* %16, i64 0, i64 %200
  %202 = load i32, i32* %201, align 4
  %203 = load i32, i32* %13, align 4
  %204 = sext i32 %203 to i64
  %205 = getelementptr inbounds [100 x i32], [100 x i32]* %4, i64 0, i64 %204
  %206 = load i32, i32* %205, align 4
  %207 = add nsw i32 %202, %206
  %208 = icmp slt i32 %198, %207
  br i1 %208, label %209, label %219

209:                                              ; preds = %197
  %210 = load i32, i32* %5, align 4
  %211 = sext i32 %210 to i64
  %212 = getelementptr inbounds [100 x i8], [100 x i8]* %2, i64 0, i64 %211
  %213 = load i8, i8* %212, align 1
  %214 = sext i8 %213 to i32
  %215 = call i32 (i8*, ...) @printf(i8* getelementptr inbounds ([3 x i8], [3 x i8]* @.str, i64 0, i64 0), i32 %214)
  br label %216

216:                                              ; preds = %209
  %217 = load i32, i32* %5, align 4
  %218 = add nsw i32 %217, 1
  store i32 %218, i32* %5, align 4
  br label %197

219:                                              ; preds = %197
  %220 = call i32 (i8*, ...) @printf(i8* getelementptr inbounds ([2 x i8], [2 x i8]* @.str.1, i64 0, i64 0))
  ret i32 0
}

declare dso_local i32 @gets(...) #1

; Function Attrs: argmemonly nounwind willreturn
declare void @llvm.memset.p0i8.i64(i8* nocapture writeonly, i8, i64, i1 immarg) #2

; Function Attrs: nounwind readonly
declare dso_local i64 @strlen(i8*) #3

declare dso_local i32 @printf(i8*, ...) #1


!llvm.module.flags = !{!0}
!llvm.ident = !{!1}

!0 = !{i32 1, !"wchar_size", i32 4}
!1 = !{!"clang version 10.0.0-4ubuntu1 "}
